; Function Attrs: mustprogress nounwind uwtable
define dso_local { ptr, i64 } @_ZN4llvm17ValueTypeByHwMode10getMVTNameENS_3MVTE(i16 %0) local_unnamed_addr #0 align 2 {
  %2 = tail call { ptr, i64 } @_ZN4llvm11getEnumNameENS_3MVT15SimpleValueTypeE(i16 noundef zeroext %0) #15
  %3 = extractvalue { ptr, i64 } %2, 0
  %4 = extractvalue { ptr, i64 } %2, 1
  %.not.i.i = icmp ult i64 %4, 5
  br i1 %.not.i.i, label %_ZN4llvm9StringRef13consume_frontES0_.exit, label %_ZNK4llvm9StringRef11starts_withES0_.exit.i

_ZNK4llvm9StringRef11starts_withES0_.exit.i:      ; preds = %1
  %bcmp.i.i = tail call i32 @bcmp(ptr noundef nonnull dereferenceable(5) %3, ptr noundef nonnull dereferenceable(5) @.str.3, i64 5)
  %5 = icmp eq i32 %bcmp.i.i, 0
  br i1 %5, label %_ZNK4llvm9StringRef11starts_withES0_.exit.thread.i, label %_ZN4llvm9StringRef13consume_frontES0_.exit

_ZNK4llvm9StringRef11starts_withES0_.exit.thread.i: ; preds = %_ZNK4llvm9StringRef11starts_withES0_.exit.i
  %6 = getelementptr inbounds i8, ptr %3, i64 5
  %7 = add i64 %4, -5
  br label %_ZN4llvm9StringRef13consume_frontES0_.exit

_ZN4llvm9StringRef13consume_frontES0_.exit:       ; preds = %1, %_ZNK4llvm9StringRef11starts_withES0_.exit.i, %_ZNK4llvm9StringRef11starts_withES0_.exit.thread.i
  %.sroa.01.0 = phi ptr [ %3, %1 ], [ %6, %_ZNK4llvm9StringRef11starts_withES0_.exit.thread.i ], [ %3, %_ZNK4llvm9StringRef11starts_withES0_.exit.i ]
  %.sroa.4.0 = phi i64 [ %4, %1 ], [ %7, %_ZNK4llvm9StringRef11starts_withES0_.exit.thread.i ], [ %4, %_ZNK4llvm9StringRef11starts_withES0_.exit.i ]
  %.fca.0.insert = insertvalue { ptr, i64 } poison, ptr %.sroa.01.0, 0
  %.fca.1.insert = insertvalue { ptr, i64 } %.fca.0.insert, i64 %.sroa.4.0, 1
  ret { ptr, i64 } %.fca.1.insert
}